Certificate:
    Data:
        Version: 3 (0x2)
        Serial Number: 1 (0x1)
    Signature Algorithm: sha256WithRSAEncryption
        Issuer: C=US, ST=California, O=Kaazing, OU=Kaazing Demo Client CA, CN=Kaazing Demo Client Root CA
        Validity
            Not Before: Feb 14 04:27:52 2018 GMT
            Not After : Feb 24 04:27:52 2018 GMT
        Subject: C=US, ST=California, O=Kaazing, OU=Kaazing Demo Client CA, CN=Kaazing Demo Client Root CA
        Subject Public Key Info:
            Public Key Algorithm: rsaEncryption
                Public-Key: (4096 bit)
                Modulus:
                    00:e9:fe:d6:8a:d1:c5:ea:2a:f4:c9:30:40:21:e1:
                    7c:a9:19:ea:b0:20:bd:19:c0:7a:4b:72:77:b6:86:
                    41:f5:11:b5:7f:c1:5e:85:fe:f7:b6:0e:61:ff:5e:
                    04:b0:c0:09:81:3a:ea:f6:70:17:56:4e:86:a1:11:
                    25:2a:e0:e4:c0:43:3a:60:13:62:86:2b:18:56:f3:
                    3a:ea:b3:4f:b1:28:37:f5:e6:56:5c:26:ca:c3:e8:
                    ec:cf:77:25:ea:c6:ac:66:a7:90:52:5d:06:57:f5:
                    4d:42:f9:89:2f:44:c9:79:93:30:7e:24:67:77:2f:
                    3b:1e:07:0e:87:34:23:dc:0f:33:ad:29:40:3a:02:
                    30:2a:cb:db:13:5a:39:e2:1b:4c:5e:d2:85:72:72:
                    aa:c0:8f:98:fe:1e:9a:93:b7:a1:4e:93:24:a3:19:
                    e6:87:f5:18:ec:8f:f0:92:3a:aa:6f:37:71:f5:3a:
                    25:62:67:cf:60:7c:54:b5:d1:38:4d:d6:0b:7d:0a:
                    90:f4:d9:b8:f7:bb:2f:96:77:c9:1a:0e:b1:13:1c:
                    62:b5:b6:37:ee:68:43:f3:ff:d6:b0:b5:0f:52:3c:
                    10:96:f9:ee:3b:27:0c:8d:6b:55:a5:16:6b:00:b1:
                    4b:9a:f2:0f:cf:c3:c5:c4:c0:9c:9b:fd:53:05:2e:
                    3a:a6:5c:22:bb:fc:82:48:c7:d4:f3:f8:47:d8:36:
                    ce:e4:2c:c1:86:aa:2b:5d:20:c0:86:cd:ac:2f:c9:
                    0d:27:e5:e1:7e:e7:75:aa:da:98:32:10:8c:6c:90:
                    69:b7:9b:78:b4:d4:5e:e7:02:19:3a:f0:9b:03:1e:
                    f8:f8:b6:51:09:30:f4:69:7c:4a:ff:62:b4:11:2f:
                    fc:c4:f9:17:ad:15:ac:9f:41:fc:18:06:c4:10:4a:
                    f9:52:0f:9a:9c:a3:7d:b5:a0:13:0d:a1:09:08:37:
                    de:9a:d6:3d:30:9a:45:7a:e7:81:6e:35:13:91:05:
                    74:aa:18:05:cb:85:fe:c8:50:70:f2:12:20:9c:cb:
                    11:44:74:9f:c9:30:93:f7:fe:5e:21:c2:3a:44:8a:
                    9e:a2:4b:62:a0:77:ba:60:9d:17:16:36:23:08:35:
                    9b:92:15:cb:21:e9:9b:42:c4:14:70:ed:dc:cc:86:
                    74:94:05:f7:93:92:c4:bc:0c:09:38:ba:26:76:42:
                    50:75:0c:4e:38:83:fe:62:ca:57:02:56:cf:2f:2a:
                    11:3b:1e:a6:65:53:a1:5c:c8:cf:25:71:c5:63:df:
                    59:f8:53:c7:a7:c2:4f:b6:d2:cc:a1:98:a7:c1:99:
                    f9:0a:a2:1f:40:ae:5c:d5:75:7f:0b:17:58:0b:87:
                    77:58:09
                Exponent: 65537 (0x10001)
        X509v3 extensions:
            X509v3 Key Usage: critical
                Certificate Sign, CRL Sign
            X509v3 Basic Constraints: critical
                CA:TRUE, pathlen:1
            X509v3 Subject Key Identifier: 
                D4:4D:35:5E:3D:81:76:8D:62:1D:3E:B1:F2:41:D7:B8:CB:C4:D6:2E
            X509v3 Authority Key Identifier: 
                keyid:D4:4D:35:5E:3D:81:76:8D:62:1D:3E:B1:F2:41:D7:B8:CB:C4:D6:2E

    Signature Algorithm: sha256WithRSAEncryption
         ce:60:35:07:37:47:ae:39:28:96:13:ca:d0:e3:3c:52:27:c8:
         ba:3d:45:3a:88:b4:8d:69:c5:73:e1:1c:4c:84:a2:a7:21:81:
         8d:93:60:73:6d:6e:f4:62:ff:19:33:3b:20:0c:d1:c8:9c:60:
         86:1c:49:a3:fc:51:5f:69:f9:c2:87:e1:35:d5:ca:99:32:57:
         55:a3:92:ec:c0:33:c6:fc:9a:d3:fc:95:ce:ca:44:13:fc:8a:
         eb:c0:60:76:2d:17:39:3b:1f:31:bb:72:81:9a:94:24:f5:9a:
         fe:08:1d:67:3c:9f:c8:75:0a:6d:74:ff:fb:eb:7b:2b:0c:35:
         5f:08:6b:ef:05:fe:c9:17:f9:c3:dd:d3:63:06:ab:aa:fe:15:
         2c:4e:1d:52:81:ad:d5:a7:c5:ab:3d:d7:f0:7e:68:1d:d3:7d:
         1b:4b:ba:45:df:a5:6d:c5:88:a7:e9:01:49:10:3f:64:23:d4:
         73:4a:8a:04:f5:53:46:bc:60:26:27:e7:e1:08:e8:33:7a:7d:
         34:12:92:93:bc:d0:ce:b3:42:56:f6:60:cc:27:6a:1c:c0:e9:
         e5:62:aa:e4:f7:f1:dc:a1:2a:f6:ba:b2:29:c2:a3:ed:ce:eb:
         05:d2:d6:d2:f9:85:73:6e:79:94:2c:39:b9:af:1f:88:1d:c4:
         a1:47:18:d5:79:69:bc:08:a6:07:37:2f:79:6a:a4:ef:ab:43:
         b4:c3:01:3f:05:e4:53:08:90:02:7b:e3:77:77:eb:15:c3:b7:
         ae:37:6c:62:b1:71:19:78:cd:5f:a7:85:15:5b:06:6c:8a:73:
         35:80:97:a4:1b:81:fc:8a:84:d5:22:f4:3c:dd:50:83:8d:f8:
         9a:c3:8e:bf:ed:be:96:d8:6d:3c:de:9a:9e:da:05:8a:32:fe:
         51:e6:11:bc:29:30:a8:d1:d7:59:ef:b2:ac:43:0f:37:77:36:
         9b:98:f8:58:09:9e:af:8e:f1:48:3e:9c:b4:51:f9:30:21:32:
         04:19:5d:a9:82:15:d5:9d:6d:e9:97:0d:24:e4:8e:48:54:97:
         4d:c5:15:c9:98:26:55:1f:5a:ea:2f:b7:60:ea:b9:fb:23:49:
         96:3b:a2:06:dd:7d:ea:b1:f4:dc:b8:45:0d:47:88:42:14:dc:
         14:54:0c:15:3c:1b:b6:c9:25:93:d5:0a:7a:8f:f6:b0:6a:1a:
         18:cb:c5:05:c0:37:33:3c:f4:c5:a8:6b:b4:0f:bc:71:01:19:
         fa:bb:8f:79:dc:4f:f0:47:7b:a2:e5:04:10:63:fa:e9:20:f5:
         a4:44:13:60:70:f5:d3:be:a6:53:80:9f:37:93:5b:a7:fe:f4:
         53:35:b2:f8:df:65:c2:4f
-----BEGIN CERTIFICATE-----
MIIF1zCCA7+gAwIBAgIBATANBgkqhkiG9w0BAQsFADB7MQswCQYDVQQGEwJVUzET
MBEGA1UECAwKQ2FsaWZvcm5pYTEQMA4GA1UECgwHS2FhemluZzEfMB0GA1UECwwW
S2FhemluZyBEZW1vIENsaWVudCBDQTEkMCIGA1UEAwwbS2FhemluZyBEZW1vIENs
aWVudCBSb290IENBMB4XDTE4MDIxNDA0Mjc1MloXDTE4MDIyNDA0Mjc1MlowezEL
MAkGA1UEBhMCVVMxEzARBgNVBAgMCkNhbGlmb3JuaWExEDAOBgNVBAoMB0thYXpp
bmcxHzAdBgNVBAsMFkthYXppbmcgRGVtbyBDbGllbnQgQ0ExJDAiBgNVBAMMG0th
YXppbmcgRGVtbyBDbGllbnQgUm9vdCBDQTCCAiIwDQYJKoZIhvcNAQEBBQADggIP
ADCCAgoCggIBAOn+1orRxeoq9MkwQCHhfKkZ6rAgvRnAektyd7aGQfURtX/BXoX+
97YOYf9eBLDACYE66vZwF1ZOhqERJSrg5MBDOmATYoYrGFbzOuqzT7EoN/XmVlwm
ysPo7M93JerGrGankFJdBlf1TUL5iS9EyXmTMH4kZ3cvOx4HDoc0I9wPM60pQDoC
MCrL2xNaOeIbTF7ShXJyqsCPmP4empO3oU6TJKMZ5of1GOyP8JI6qm83cfU6JWJn
z2B8VLXROE3WC30KkPTZuPe7L5Z3yRoOsRMcYrW2N+5oQ/P/1rC1D1I8EJb57jsn
DI1rVaUWawCxS5ryD8/DxcTAnJv9UwUuOqZcIrv8gkjH1PP4R9g2zuQswYaqK10g
wIbNrC/JDSfl4X7ndaramDIQjGyQabebeLTUXucCGTrwmwMe+Pi2UQkw9Gl8Sv9i
tBEv/MT5F60VrJ9B/BgGxBBK+VIPmpyjfbWgEw2hCQg33prWPTCaRXrngW41E5EF
dKoYBcuF/shQcPISIJzLEUR0n8kwk/f+XiHCOkSKnqJLYqB3umCdFxY2Iwg1m5IV
yyHpm0LEFHDt3MyGdJQF95OSxLwMCTi6JnZCUHUMTjiD/mLKVwJWzy8qETsepmVT
oVzIzyVxxWPfWfhTx6fCT7bSzKGYp8GZ+QqiH0CuXNV1fwsXWAuHd1gJAgMBAAGj
ZjBkMA4GA1UdDwEB/wQEAwIBBjASBgNVHRMBAf8ECDAGAQH/AgEBMB0GA1UdDgQW
BBTUTTVePYF2jWIdPrHyQde4y8TWLjAfBgNVHSMEGDAWgBTUTTVePYF2jWIdPrHy
Qde4y8TWLjANBgkqhkiG9w0BAQsFAAOCAgEAzmA1BzdHrjkolhPK0OM8UifIuj1F
Ooi0jWnFc+EcTISipyGBjZNgc21u9GL/GTM7IAzRyJxghhxJo/xRX2n5wofhNdXK
mTJXVaOS7MAzxvya0/yVzspEE/yK68Bgdi0XOTsfMbtygZqUJPWa/ggdZzyfyHUK
bXT/++t7Kww1Xwhr7wX+yRf5w93TYwarqv4VLE4dUoGt1afFqz3X8H5oHdN9G0u6
Rd+lbcWIp+kBSRA/ZCPUc0qKBPVTRrxgJifn4QjoM3p9NBKSk7zQzrNCVvZgzCdq
HMDp5WKq5Pfx3KEq9rqyKcKj7c7rBdLW0vmFc255lCw5ua8fiB3EoUcY1XlpvAim
BzcveWqk76tDtMMBPwXkUwiQAnvjd3frFcO3rjdsYrFxGXjNX6eFFVsGbIpzNYCX
pBuB/IqE1SL0PN1Qg434msOOv+2+lthtPN6antoFijL+UeYRvCkwqNHXWe+yrEMP
N3c2m5j4WAmer47xSD6ctFH5MCEyBBldqYIV1Z1t6ZcNJOSOSFSXTcUVyZgmVR9a
6i+3YOq5+yNJljuiBt196rH03LhFDUeIQhTcFFQMFTwbtsklk9UKeo/2sGoaGMvF
BcA3Mzz0xahrtA+8cQEZ+ruPedxP8Ed7ouUEEGP66SD1pEQTYHD1076mU4CfN5Nb
p/70UzWy+N9lwk8=
-----END CERTIFICATE-----
