Certificate:
    Data:
        Version: 3 (0x2)
        Serial Number: 1 (0x1)
    Signature Algorithm: sha256WithRSAEncryption
        Issuer: C=US, ST=California, O=Kaazing, OU=Kaazing Demo Server CA, CN=Kaazing Demo Server Root CA
        Validity
            Not Before: Feb 14 04:27:41 2018 GMT
            Not After : Feb 24 04:27:41 2018 GMT
        Subject: C=US, ST=California, O=Kaazing, OU=Kaazing Demo Server CA, CN=Kaazing Demo Server Root CA
        Subject Public Key Info:
            Public Key Algorithm: rsaEncryption
                Public-Key: (4096 bit)
                Modulus:
                    00:f5:31:25:05:72:a6:77:2c:98:7a:3c:b0:06:77:
                    d7:bd:d7:8d:8c:9a:27:41:97:76:d3:61:d3:cc:8b:
                    ce:72:e7:5a:20:bf:1a:43:1d:be:24:c5:21:29:af:
                    e2:ca:dc:58:21:19:ce:3a:a6:0f:e6:55:23:5f:8e:
                    56:b0:6b:ea:90:5e:66:fd:9a:58:48:ef:ef:42:70:
                    4f:70:b4:02:dd:d0:4d:78:31:46:03:8d:2e:23:d8:
                    86:69:9e:e2:73:c1:fb:0c:be:84:cd:18:0b:9d:d2:
                    27:b5:ad:33:c9:99:f8:15:a8:18:15:51:e1:1c:e4:
                    ed:b0:7d:89:48:a4:71:a0:1b:8d:07:17:70:ab:1d:
                    28:b4:9f:01:d0:23:db:46:d0:0f:47:4b:29:5a:1d:
                    2a:71:3e:74:e9:f3:f9:94:21:43:cb:cd:2f:fe:32:
                    63:10:65:d2:48:af:5a:ff:cf:0a:5b:b1:e3:ea:7e:
                    62:32:5a:d4:2c:f3:c9:02:8a:c0:e4:28:f2:a8:9c:
                    9b:05:cd:c6:6f:01:8b:d0:17:a3:bf:b6:0e:a7:a6:
                    d6:9b:2c:c9:a0:cb:48:ba:98:39:86:2b:ce:c0:62:
                    80:5d:c8:e6:01:7a:cb:e8:66:3d:10:f6:02:52:bb:
                    8f:4c:22:ae:c6:af:c8:46:d3:8d:0e:2c:2d:34:1b:
                    6d:b0:7e:c1:35:34:4b:82:49:a2:f8:06:97:77:a4:
                    35:66:4e:cc:9f:f9:57:5c:e0:aa:1a:90:71:31:34:
                    b1:bd:c1:9e:66:3a:51:eb:51:4f:db:89:92:e3:4a:
                    67:9d:a6:63:6d:4f:3e:e7:01:bc:ed:84:b4:e1:ad:
                    73:e9:c8:43:8b:57:ab:27:e1:0f:91:3c:3a:85:9a:
                    2d:57:b9:3c:2d:af:e5:d7:ac:32:51:47:bb:e8:01:
                    94:79:a0:11:ca:fc:a0:10:80:25:b6:09:a4:bd:4a:
                    7f:cd:4b:79:29:96:a6:c0:9b:75:ec:8a:31:39:b6:
                    1d:07:97:c7:42:e0:c6:e4:63:24:86:f4:bb:d2:b2:
                    ad:d3:89:f5:9e:6d:c9:b4:f7:94:bc:9a:75:44:cb:
                    f7:a9:0b:98:eb:a3:bd:da:4c:1f:78:f7:da:97:47:
                    07:b8:c0:59:95:ac:71:5f:f7:09:5f:9e:18:37:20:
                    1a:63:33:50:b3:df:74:13:59:9b:64:36:f6:02:b6:
                    a4:dd:45:f5:c7:45:3b:0f:fe:61:e5:d9:62:56:90:
                    5a:81:a4:e1:d9:da:df:77:15:e6:75:29:85:28:d1:
                    70:6a:8e:3b:37:83:8c:64:19:ce:33:92:f5:8d:d5:
                    87:05:4e:4d:08:6e:43:9a:b5:10:53:79:3b:82:7c:
                    f2:09:bf
                Exponent: 65537 (0x10001)
        X509v3 extensions:
            X509v3 Key Usage: critical
                Certificate Sign, CRL Sign
            X509v3 Basic Constraints: critical
                CA:TRUE, pathlen:1
            X509v3 Subject Key Identifier: 
                0E:33:D2:95:23:17:C9:9A:59:37:02:E2:BD:70:E4:DB:6A:1E:F0:9B
            X509v3 Authority Key Identifier: 
                keyid:0E:33:D2:95:23:17:C9:9A:59:37:02:E2:BD:70:E4:DB:6A:1E:F0:9B

    Signature Algorithm: sha256WithRSAEncryption
         ca:64:d1:8e:21:6e:7b:02:27:a5:f9:5c:b0:e2:cd:29:b5:58:
         b1:17:bc:69:0d:46:0d:bc:e2:56:ca:f5:62:c6:e7:52:db:16:
         f0:0f:9b:a4:89:aa:7c:d9:5c:82:df:2a:ee:df:a1:bc:13:5b:
         b2:f5:7a:6f:64:cf:81:cd:f9:c7:b8:cb:ee:50:4f:df:db:63:
         18:d5:1d:56:d6:8b:bd:b2:a6:b2:83:cf:85:45:25:87:b1:d6:
         a9:98:f0:cc:71:c9:29:36:50:64:5b:ea:bf:af:f1:c3:45:26:
         ad:7d:6d:a3:3b:47:12:93:81:0a:d3:00:72:b0:f4:67:b0:1a:
         63:11:d2:ae:c8:0b:92:9d:db:99:cd:dd:bf:54:a3:48:36:ba:
         da:cd:2a:a0:73:a2:89:91:da:d1:f9:41:26:aa:dd:6f:6d:ea:
         50:03:e1:4c:f5:cc:5a:02:32:c7:f8:f8:23:11:b8:6c:31:49:
         62:13:c4:5f:9d:ce:5b:74:cc:14:98:cc:6b:f0:43:dd:6e:f7:
         a0:79:ef:7f:85:4a:4f:f8:c9:e3:27:cc:1b:de:76:dd:09:21:
         6f:bc:e6:2d:1c:4f:0b:fe:6f:8b:ca:01:31:b9:4a:88:5a:cf:
         7a:99:e8:b8:7d:6c:a0:2c:db:61:cf:fe:b9:c7:71:5d:12:94:
         e6:32:01:5a:c0:65:8f:21:18:6c:b5:5e:5e:39:1b:f2:98:0d:
         89:f5:2d:2c:b5:53:a3:b4:4e:a2:87:5b:d1:0b:2b:70:a1:c7:
         34:69:be:2f:bf:d1:ae:84:2d:31:b2:d5:75:37:03:66:ed:2d:
         fd:f0:61:59:b1:b1:6c:77:1c:17:65:b0:d5:36:ca:d7:2d:f5:
         be:d9:71:6f:86:8e:4d:2f:ed:b9:9c:09:00:ac:8a:c6:42:c9:
         49:ee:c4:89:e8:39:0f:14:97:8d:c1:28:b1:41:ee:51:d8:13:
         bc:59:c4:f1:34:78:6e:c9:cc:a3:f9:87:07:dc:89:94:93:35:
         3f:e9:66:e2:f1:75:f2:bb:83:89:97:fc:2b:79:75:ce:56:1b:
         71:01:a6:25:15:6e:d8:af:13:9c:c7:5f:fe:64:8b:d5:7d:7a:
         e0:50:88:68:6c:22:1f:95:9d:26:4b:24:80:29:58:51:8e:f1:
         56:08:39:4e:95:f6:42:e7:af:b3:ab:a2:99:ec:c5:12:81:ed:
         26:cc:4d:66:6f:8f:af:8c:db:75:cf:26:3f:cc:81:fd:a6:ea:
         3a:2b:fa:a8:76:ed:a3:53:5a:82:e3:da:01:32:7c:84:b0:dd:
         9e:16:20:91:2e:ad:b5:4c:2d:da:34:c2:44:f6:be:cd:c3:72:
         53:7a:7e:02:85:07:45:85
-----BEGIN CERTIFICATE-----
MIIF1zCCA7+gAwIBAgIBATANBgkqhkiG9w0BAQsFADB7MQswCQYDVQQGEwJVUzET
MBEGA1UECAwKQ2FsaWZvcm5pYTEQMA4GA1UECgwHS2FhemluZzEfMB0GA1UECwwW
S2FhemluZyBEZW1vIFNlcnZlciBDQTEkMCIGA1UEAwwbS2FhemluZyBEZW1vIFNl
cnZlciBSb290IENBMB4XDTE4MDIxNDA0Mjc0MVoXDTE4MDIyNDA0Mjc0MVowezEL
MAkGA1UEBhMCVVMxEzARBgNVBAgMCkNhbGlmb3JuaWExEDAOBgNVBAoMB0thYXpp
bmcxHzAdBgNVBAsMFkthYXppbmcgRGVtbyBTZXJ2ZXIgQ0ExJDAiBgNVBAMMG0th
YXppbmcgRGVtbyBTZXJ2ZXIgUm9vdCBDQTCCAiIwDQYJKoZIhvcNAQEBBQADggIP
ADCCAgoCggIBAPUxJQVypncsmHo8sAZ3173XjYyaJ0GXdtNh08yLznLnWiC/GkMd
viTFISmv4srcWCEZzjqmD+ZVI1+OVrBr6pBeZv2aWEjv70JwT3C0At3QTXgxRgON
LiPYhmme4nPB+wy+hM0YC53SJ7WtM8mZ+BWoGBVR4Rzk7bB9iUikcaAbjQcXcKsd
KLSfAdAj20bQD0dLKVodKnE+dOnz+ZQhQ8vNL/4yYxBl0kivWv/PClux4+p+YjJa
1CzzyQKKwOQo8qicmwXNxm8Bi9AXo7+2Dqem1pssyaDLSLqYOYYrzsBigF3I5gF6
y+hmPRD2AlK7j0wirsavyEbTjQ4sLTQbbbB+wTU0S4JJovgGl3ekNWZOzJ/5V1zg
qhqQcTE0sb3BnmY6UetRT9uJkuNKZ52mY21PPucBvO2EtOGtc+nIQ4tXqyfhD5E8
OoWaLVe5PC2v5desMlFHu+gBlHmgEcr8oBCAJbYJpL1Kf81LeSmWpsCbdeyKMTm2
HQeXx0LgxuRjJIb0u9KyrdOJ9Z5tybT3lLyadUTL96kLmOujvdpMH3j32pdHB7jA
WZWscV/3CV+eGDcgGmMzULPfdBNZm2Q29gK2pN1F9cdFOw/+YeXZYlaQWoGk4dna
33cV5nUphSjRcGqOOzeDjGQZzjOS9Y3VhwVOTQhuQ5q1EFN5O4J88gm/AgMBAAGj
ZjBkMA4GA1UdDwEB/wQEAwIBBjASBgNVHRMBAf8ECDAGAQH/AgEBMB0GA1UdDgQW
BBQOM9KVIxfJmlk3AuK9cOTbah7wmzAfBgNVHSMEGDAWgBQOM9KVIxfJmlk3AuK9
cOTbah7wmzANBgkqhkiG9w0BAQsFAAOCAgEAymTRjiFuewInpflcsOLNKbVYsRe8
aQ1GDbziVsr1YsbnUtsW8A+bpImqfNlcgt8q7t+hvBNbsvV6b2TPgc35x7jL7lBP
39tjGNUdVtaLvbKmsoPPhUUlh7HWqZjwzHHJKTZQZFvqv6/xw0UmrX1toztHEpOB
CtMAcrD0Z7AaYxHSrsgLkp3bmc3dv1SjSDa62s0qoHOiiZHa0flBJqrdb23qUAPh
TPXMWgIyx/j4IxG4bDFJYhPEX53OW3TMFJjMa/BD3W73oHnvf4VKT/jJ4yfMG952
3Qkhb7zmLRxPC/5vi8oBMblKiFrPepnouH1soCzbYc/+ucdxXRKU5jIBWsBljyEY
bLVeXjkb8pgNifUtLLVTo7ROoodb0QsrcKHHNGm+L7/RroQtMbLVdTcDZu0t/fBh
WbGxbHccF2Ww1TbK1y31vtlxb4aOTS/tuZwJAKyKxkLJSe7Eieg5DxSXjcEosUHu
UdgTvFnE8TR4bsnMo/mHB9yJlJM1P+lm4vF18ruDiZf8K3l1zlYbcQGmJRVu2K8T
nMdf/mSL1X164FCIaGwiH5WdJkskgClYUY7xVgg5TpX2Quevs6uimezFEoHtJsxN
Zm+Pr4zbdc8mP8yB/abqOiv6qHbto1NaguPaATJ8hLDdnhYgkS6ttUwt2jTCRPa+
zcNyU3p+AoUHRYU=
-----END CERTIFICATE-----
