Certificate:
    Data:
        Version: 3 (0x2)
        Serial Number: 2 (0x2)
    Signature Algorithm: sha256WithRSAEncryption
        Issuer: C=US, ST=California, O=Kaazing, OU=Kaazing Demo Server CA, CN=Kaazing Demo Server Root CA
        Validity
            Not Before: Feb 14 04:27:41 2018 GMT
            Not After : Feb 24 04:27:41 2018 GMT
        Subject: C=US, ST=California, O=Kaazing, OU=Kaazing Demo, CN=*.example.com
        Subject Public Key Info:
            Public Key Algorithm: rsaEncryption
                Public-Key: (2048 bit)
                Modulus:
                    00:bf:a2:47:00:39:40:e6:69:5c:66:bb:0e:cf:23:
                    31:7e:67:f4:37:37:e0:32:3d:8d:3f:2c:21:20:c0:
                    c2:78:72:39:00:01:22:5d:8d:02:3f:48:a0:e8:69:
                    29:c1:3b:a7:80:7a:3b:27:a6:43:52:b7:62:4c:2f:
                    c6:fb:62:7d:9d:55:61:b8:7c:24:41:d8:de:44:dd:
                    3d:bb:a2:86:4a:d1:42:fb:a8:f0:9e:22:75:51:36:
                    dd:da:7e:02:b6:2c:a4:1e:15:d9:8f:54:51:9f:83:
                    ac:9b:bb:93:bb:fb:6b:42:30:87:bf:ab:31:2c:98:
                    4a:10:42:81:95:d7:c6:4f:42:78:02:38:72:38:04:
                    7d:2e:ed:4a:93:d5:39:48:65:e4:9d:6b:e4:ef:22:
                    13:f2:d0:2d:ac:c6:68:35:4f:59:fc:99:93:eb:8c:
                    15:f3:e0:50:aa:fe:fb:e0:eb:94:83:15:cc:f1:48:
                    38:2f:c7:66:4e:e7:85:7f:2a:bb:3b:b5:c0:15:5e:
                    03:4b:1c:1b:f9:67:6f:4c:44:d4:eb:84:6a:56:14:
                    9f:0b:eb:39:46:4b:90:8e:a4:bc:74:6c:65:1a:e1:
                    81:7b:1e:4e:2a:fb:a1:27:27:58:65:f2:6b:49:aa:
                    b0:e3:09:7e:c9:ca:2e:09:07:c6:3c:dc:48:25:ee:
                    49:53
                Exponent: 65537 (0x10001)
        X509v3 extensions:
            X509v3 Key Usage: critical
                Digital Signature, Key Encipherment
            X509v3 Basic Constraints: 
                CA:FALSE
            X509v3 Extended Key Usage: 
                TLS Web Server Authentication
            X509v3 Subject Key Identifier: 
                E9:97:31:DD:A8:24:96:FB:33:5B:1D:92:0E:5C:FF:45:E3:F9:EC:BE
            X509v3 Authority Key Identifier: 
                keyid:0E:33:D2:95:23:17:C9:9A:59:37:02:E2:BD:70:E4:DB:6A:1E:F0:9B

            X509v3 Subject Alternative Name: 
                DNS:example.com, DNS:*.example.com, DNS:example.net, DNS:*.example.net, DNS:example.org, DNS:*.example.org
    Signature Algorithm: sha256WithRSAEncryption
         7e:35:bf:b5:e0:28:dc:4f:e0:8e:ef:a6:b6:35:92:a1:b9:1c:
         80:ca:f5:30:bc:66:f7:eb:c3:fd:ce:69:f2:5b:8e:4b:38:a9:
         d8:f0:52:86:75:86:23:ef:16:01:f8:29:d9:8a:06:d5:9f:05:
         80:b4:3e:f6:39:aa:d0:ce:e3:ee:d4:56:55:17:17:68:2a:03:
         97:3f:f3:bb:a9:0c:b1:35:f0:f2:3c:dc:e4:f3:f2:ff:e9:88:
         59:f7:4e:97:84:f6:3a:aa:ce:19:6d:77:42:6b:67:90:a6:03:
         58:82:fe:a1:2d:fe:87:3f:fd:4c:d0:16:6f:34:7a:b3:0f:6d:
         68:46:c0:e0:60:9e:f0:b8:43:b4:91:26:e9:e2:f5:a5:90:66:
         40:d6:ef:97:64:ec:d3:c2:8b:76:d6:3c:9d:b6:33:5c:44:ff:
         1c:4d:e7:1d:d3:ab:2d:96:89:30:ed:58:0a:17:1d:b0:6e:3d:
         39:4b:bd:3c:80:3f:d0:8f:42:46:65:80:9e:12:46:56:1c:ec:
         45:de:be:1f:87:31:9f:e2:92:4f:09:f5:a7:aa:b7:9c:49:65:
         49:b1:39:7e:83:3b:2f:42:a8:77:9a:87:21:2c:98:57:57:64:
         65:d2:ae:97:74:56:60:45:96:61:e7:69:d1:88:67:16:58:8b:
         5b:9b:2d:17:51:2f:82:b7:fb:de:ef:fe:e0:28:0d:ef:b9:ab:
         72:d4:da:ca:d5:8f:57:07:5b:cc:3c:76:1e:01:fd:b7:db:62:
         b4:a1:ef:2a:c2:cb:60:a6:e7:af:b1:fa:49:e2:c4:5a:8f:4b:
         e3:c5:22:fd:55:98:7c:94:eb:f2:ba:c2:c0:b8:cd:67:c0:2b:
         f9:10:17:8a:61:a1:6c:ec:bd:67:ea:f3:6b:33:97:0a:52:d2:
         6b:f0:0d:47:42:28:6d:38:2a:c4:fc:c2:0c:92:df:d7:07:d6:
         64:04:ae:bb:eb:d7:c6:75:37:9a:b3:02:b6:46:1e:43:1e:fb:
         0f:31:a2:79:c6:e6:d9:4c:89:ae:4a:89:ca:2e:c8:4b:e4:54:
         b0:40:a8:36:0c:eb:68:8e:ef:67:f3:5a:7d:73:9e:39:ca:0f:
         bd:eb:5b:0a:08:49:98:c4:f3:d0:31:b7:60:9f:0c:f9:aa:98:
         65:a6:d1:cb:3c:44:0f:de:e9:86:e1:d6:68:13:cd:4a:90:d7:
         d7:a4:2e:60:42:92:5f:d8:7c:68:9c:ac:7b:9a:48:2f:b8:6f:
         12:cc:8c:00:c7:29:0b:08:0d:ef:72:dc:8c:bc:e6:e3:19:48:
         81:af:34:d9:07:fb:83:78:c5:ae:1f:42:fe:e0:0e:34:8c:db:
         b3:6d:46:4c:ed:39:67:38
-----BEGIN CERTIFICATE-----
MIIFLDCCAxSgAwIBAgIBAjANBgkqhkiG9w0BAQsFADB7MQswCQYDVQQGEwJVUzET
MBEGA1UECAwKQ2FsaWZvcm5pYTEQMA4GA1UECgwHS2FhemluZzEfMB0GA1UECwwW
S2FhemluZyBEZW1vIFNlcnZlciBDQTEkMCIGA1UEAwwbS2FhemluZyBEZW1vIFNl
cnZlciBSb290IENBMB4XDTE4MDIxNDA0Mjc0MVoXDTE4MDIyNDA0Mjc0MVowYzEL
MAkGA1UEBhMCVVMxEzARBgNVBAgMCkNhbGlmb3JuaWExEDAOBgNVBAoMB0thYXpp
bmcxFTATBgNVBAsMDEthYXppbmcgRGVtbzEWMBQGA1UEAwwNKi5leGFtcGxlLmNv
bTCCASIwDQYJKoZIhvcNAQEBBQADggEPADCCAQoCggEBAL+iRwA5QOZpXGa7Ds8j
MX5n9Dc34DI9jT8sISDAwnhyOQABIl2NAj9IoOhpKcE7p4B6OyemQ1K3Ykwvxvti
fZ1VYbh8JEHY3kTdPbuihkrRQvuo8J4idVE23dp+ArYspB4V2Y9UUZ+DrJu7k7v7
a0Iwh7+rMSyYShBCgZXXxk9CeAI4cjgEfS7tSpPVOUhl5J1r5O8iE/LQLazGaDVP
WfyZk+uMFfPgUKr+++DrlIMVzPFIOC/HZk7nhX8quzu1wBVeA0scG/lnb0xE1OuE
alYUnwvrOUZLkI6kvHRsZRrhgXseTir7oScnWGXya0mqsOMJfsnKLgkHxjzcSCXu
SVMCAwEAAaOB0jCBzzAOBgNVHQ8BAf8EBAMCBaAwCQYDVR0TBAIwADATBgNVHSUE
DDAKBggrBgEFBQcDATAdBgNVHQ4EFgQU6Zcx3agklvszWx2SDlz/ReP57L4wHwYD
VR0jBBgwFoAUDjPSlSMXyZpZNwLivXDk22oe8JswXQYDVR0RBFYwVIILZXhhbXBs
ZS5jb22CDSouZXhhbXBsZS5jb22CC2V4YW1wbGUubmV0gg0qLmV4YW1wbGUubmV0
ggtleGFtcGxlLm9yZ4INKi5leGFtcGxlLm9yZzANBgkqhkiG9w0BAQsFAAOCAgEA
fjW/teAo3E/gju+mtjWSobkcgMr1MLxm9+vD/c5p8luOSzip2PBShnWGI+8WAfgp
2YoG1Z8FgLQ+9jmq0M7j7tRWVRcXaCoDlz/zu6kMsTXw8jzc5PPy/+mIWfdOl4T2
OqrOGW13QmtnkKYDWIL+oS3+hz/9TNAWbzR6sw9taEbA4GCe8LhDtJEm6eL1pZBm
QNbvl2Ts08KLdtY8nbYzXET/HE3nHdOrLZaJMO1YChcdsG49OUu9PIA/0I9CRmWA
nhJGVhzsRd6+H4cxn+KSTwn1p6q3nEllSbE5foM7L0Kod5qHISyYV1dkZdKul3RW
YEWWYedp0YhnFliLW5stF1Evgrf73u/+4CgN77mrctTaytWPVwdbzDx2HgH9t9ti
tKHvKsLLYKbnr7H6SeLEWo9L48Ui/VWYfJTr8rrCwLjNZ8Ar+RAXimGhbOy9Z+rz
azOXClLSa/ANR0IobTgqxPzCDJLf1wfWZASuu+vXxnU3mrMCtkYeQx77DzGiecbm
2UyJrkqJyi7IS+RUsECoNgzraI7vZ/NafXOeOcoPvetbCghJmMTz0DG3YJ8M+aqY
ZabRyzxED97phuHWaBPNSpDX16QuYEKSX9h8aJyse5pIL7hvEsyMAMcpCwgN73Lc
jLzm4xlIga802Qf7g3jFrh9C/uAONIzbs21GTO05Zzg=
-----END CERTIFICATE-----
